target datalayout = "e-m:e-p270:32:32-p271:32:32-p272:64:64-i64:64-i128:128-f80:128-n8:16:32:64-S128"
target triple = "x86_64-pc-linux-gnu"

%"class.llvm::SmallVectorBase" = type { ptr, i32, i32 }
%"class.clang::GlobalModuleIndex" = type { %"class.std::unique_ptr", ptr, %"class.llvm::SmallVector.2", %"class.llvm::DenseMap", %"class.llvm::StringMap", i32, i32 }
%"class.std::unique_ptr" = type { %"struct.std::__uniq_ptr_data" }
%"struct.std::__uniq_ptr_data" = type { %"class.std::__uniq_ptr_impl" }
%"class.std::__uniq_ptr_impl" = type { %"class.std::tuple" }
%"class.std::tuple" = type { %"struct.std::_Tuple_impl" }
%"struct.std::_Tuple_impl" = type { %"struct.std::_Head_base.1" }
%"struct.std::_Head_base.1" = type { ptr }
%"class.llvm::SmallVector.2" = type { %"class.llvm::SmallVectorImpl.3", %"struct.llvm::SmallVectorStorage.6" }
%"class.llvm::SmallVectorImpl.3" = type { %"class.llvm::SmallVectorTemplateBase.4" }
%"class.llvm::SmallVectorTemplateBase.4" = type { %"class.llvm::SmallVectorTemplateCommon.5" }
%"class.llvm::SmallVectorTemplateCommon.5" = type { %"class.llvm::SmallVectorBase" }
%"struct.llvm::SmallVectorStorage.6" = type { [1408 x i8] }
%"class.llvm::DenseMap" = type <{ ptr, i32, i32, i32, [4 x i8] }>
%"class.llvm::StringMap" = type { %"class.llvm::StringMapImpl" }
%"class.llvm::StringMapImpl" = type { ptr, i32, i32, i32, i32 }
%"class.llvm::OnDiskIterableChainedHashTable<(anonymous namespace)::IdentifierIndexReaderTrait>::key_iterator" = type { %"class.llvm::OnDiskIterableChainedHashTable<(anonymous namespace)::IdentifierIndexReaderTrait>::iterator_base", ptr }
%"class.llvm::OnDiskIterableChainedHashTable<(anonymous namespace)::IdentifierIndexReaderTrait>::iterator_base" = type { ptr, i32, i32 }
%"class.(anonymous namespace)::GlobalIndexIdentifierIterator" = type { %"class.clang::IdentifierIterator", %"class.llvm::OnDiskIterableChainedHashTable<(anonymous namespace)::IdentifierIndexReaderTrait>::key_iterator", %"class.llvm::OnDiskIterableChainedHashTable<(anonymous namespace)::IdentifierIndexReaderTrait>::key_iterator" }
%"class.clang::IdentifierIterator" = type { ptr }
%"class.llvm::OnDiskIterableChainedHashTable" = type { %"class.llvm::OnDiskChainedHashTable.base", ptr }
%"class.llvm::OnDiskChainedHashTable.base" = type <{ i32, i32, ptr, ptr, i8 }>
%"class.llvm::OnDiskChainedHashTable" = type <{ i32, i32, ptr, ptr, [8 x i8] }>

@_ZTVN5clang18IdentifierIteratorE = external unnamed_addr constant { [5 x ptr] }, align 8

; Function Attrs: mustprogress nounwind uwtable
define internal void @_ZN4llvm30OnDiskIterableChainedHashTableIN12_GLOBAL__N_126IdentifierIndexReaderTraitEE13iterator_baseC2EPKhj(ptr noundef nonnull align 8 dereferenceable(16) %0, ptr noundef %1, i32 noundef %2) unnamed_addr #0 align 2 {
  %4 = alloca ptr, align 8
  %5 = alloca ptr, align 8
  %6 = alloca i32, align 4
  store ptr %0, ptr %4, align 8
  store ptr %1, ptr %5, align 8
  store i32 %2, ptr %6, align 4
  %7 = load ptr, ptr %4, align 8
  %8 = getelementptr inbounds nuw %"class.llvm::OnDiskIterableChainedHashTable<(anonymous namespace)::IdentifierIndexReaderTrait>::iterator_base", ptr %7, i32 0, i32 0
  %9 = load ptr, ptr %5, align 8
  store ptr %9, ptr %8, align 8
  %10 = getelementptr inbounds nuw %"class.llvm::OnDiskIterableChainedHashTable<(anonymous namespace)::IdentifierIndexReaderTrait>::iterator_base", ptr %7, i32 0, i32 1
  store i32 0, ptr %10, align 8
  %11 = getelementptr inbounds nuw %"class.llvm::OnDiskIterableChainedHashTable<(anonymous namespace)::IdentifierIndexReaderTrait>::iterator_base", ptr %7, i32 0, i32 2
  %12 = load i32, ptr %6, align 4
  store i32 %12, ptr %11, align 4
  ret void
}

; Function Attrs: mustprogress nounwind uwtable
define internal void @_ZN4llvm30OnDiskIterableChainedHashTableIN12_GLOBAL__N_126IdentifierIndexReaderTraitEE12key_iteratorC2EPKhjPS2_(ptr noundef nonnull align 8 dereferenceable(24) %0, ptr noundef %1, i32 noundef %2, ptr noundef %3) unnamed_addr #0 align 2 {
  %5 = alloca ptr, align 8
  %6 = alloca ptr, align 8
  %7 = alloca i32, align 4
  %8 = alloca ptr, align 8
  store ptr %0, ptr %5, align 8
  store ptr %1, ptr %6, align 8
  store i32 %2, ptr %7, align 4
  store ptr %3, ptr %8, align 8
  %9 = load ptr, ptr %5, align 8
  %10 = load ptr, ptr %6, align 8
  %11 = load i32, ptr %7, align 4
  call void @_ZN4llvm30OnDiskIterableChainedHashTableIN12_GLOBAL__N_126IdentifierIndexReaderTraitEE13iterator_baseC2EPKhj(ptr noundef nonnull align 8 dereferenceable(16) %9, ptr noundef %10, i32 noundef %11)
  %12 = getelementptr inbounds nuw %"class.llvm::OnDiskIterableChainedHashTable<(anonymous namespace)::IdentifierIndexReaderTrait>::key_iterator", ptr %9, i32 0, i32 1
  %13 = load ptr, ptr %8, align 8
  store ptr %13, ptr %12, align 8
  ret void
}

; Function Attrs: mustprogress nounwind uwtable
define internal noundef nonnull align 1 dereferenceable(1) ptr @_ZN4llvm22OnDiskChainedHashTableIN12_GLOBAL__N_126IdentifierIndexReaderTraitEE10getInfoObjEv(ptr noundef nonnull align 8 dereferenceable(25) %0) #0 align 2 {
  %2 = alloca ptr, align 8
  store ptr %0, ptr %2, align 8
  %3 = load ptr, ptr %2, align 8
  %4 = getelementptr inbounds i8, ptr %3, i64 24
  ret ptr %4
}

; Function Attrs: mustprogress nounwind uwtable
define internal noundef i32 @_ZNK4llvm22OnDiskChainedHashTableIN12_GLOBAL__N_126IdentifierIndexReaderTraitEE13getNumEntriesEv(ptr noundef nonnull align 8 dereferenceable(25) %0) #0 align 2 {
  %2 = alloca ptr, align 8
  store ptr %0, ptr %2, align 8
  %3 = load ptr, ptr %2, align 8
  %4 = getelementptr inbounds nuw %"class.llvm::OnDiskChainedHashTable", ptr %3, i32 0, i32 1
  %5 = load i32, ptr %4, align 4
  ret i32 %5
}

; Function Attrs: mustprogress nounwind uwtable
define internal void @_ZN4llvm30OnDiskIterableChainedHashTableIN12_GLOBAL__N_126IdentifierIndexReaderTraitEE13iterator_baseC2Ev(ptr noundef nonnull align 8 dereferenceable(16) %0) unnamed_addr #0 align 2 {
  %2 = alloca ptr, align 8
  store ptr %0, ptr %2, align 8
  %3 = load ptr, ptr %2, align 8
  %4 = getelementptr inbounds nuw %"class.llvm::OnDiskIterableChainedHashTable<(anonymous namespace)::IdentifierIndexReaderTrait>::iterator_base", ptr %3, i32 0, i32 0
  store ptr null, ptr %4, align 8
  %5 = getelementptr inbounds nuw %"class.llvm::OnDiskIterableChainedHashTable<(anonymous namespace)::IdentifierIndexReaderTrait>::iterator_base", ptr %3, i32 0, i32 1
  store i32 0, ptr %5, align 8
  %6 = getelementptr inbounds nuw %"class.llvm::OnDiskIterableChainedHashTable<(anonymous namespace)::IdentifierIndexReaderTrait>::iterator_base", ptr %3, i32 0, i32 2
  store i32 0, ptr %6, align 4
  ret void
}

; Function Attrs: mustprogress nounwind uwtable
define internal void @_ZN4llvm30OnDiskIterableChainedHashTableIN12_GLOBAL__N_126IdentifierIndexReaderTraitEE7key_endEv(ptr dead_on_unwind noalias writable sret(%"class.llvm::OnDiskIterableChainedHashTable<(anonymous namespace)::IdentifierIndexReaderTrait>::key_iterator") align 8 %0, ptr noundef nonnull align 8 dereferenceable(40) %1) #0 align 2 {
  %3 = alloca ptr, align 8
  store ptr %1, ptr %3, align 8
  call void @_ZN4llvm30OnDiskIterableChainedHashTableIN12_GLOBAL__N_126IdentifierIndexReaderTraitEE12key_iteratorC2Ev(ptr noundef nonnull align 8 dereferenceable(24) %0)
  ret void
}

; Function Attrs: mustprogress nounwind uwtable
define internal void @_ZN4llvm30OnDiskIterableChainedHashTableIN12_GLOBAL__N_126IdentifierIndexReaderTraitEE9key_beginEv(ptr dead_on_unwind noalias writable sret(%"class.llvm::OnDiskIterableChainedHashTable<(anonymous namespace)::IdentifierIndexReaderTrait>::key_iterator") align 8 %0, ptr noundef nonnull align 8 dereferenceable(40) %1) #0 align 2 {
  %3 = alloca ptr, align 8
  store ptr %1, ptr %3, align 8
  %4 = load ptr, ptr %3, align 8
  %5 = getelementptr inbounds nuw %"class.llvm::OnDiskIterableChainedHashTable", ptr %4, i32 0, i32 1
  %6 = load ptr, ptr %5, align 8
  %7 = call noundef i32 @_ZNK4llvm22OnDiskChainedHashTableIN12_GLOBAL__N_126IdentifierIndexReaderTraitEE13getNumEntriesEv(ptr noundef nonnull align 8 dereferenceable(25) %4)
  %8 = call noundef nonnull align 1 dereferenceable(1) ptr @_ZN4llvm22OnDiskChainedHashTableIN12_GLOBAL__N_126IdentifierIndexReaderTraitEE10getInfoObjEv(ptr noundef nonnull align 8 dereferenceable(25) %4)
  call void @_ZN4llvm30OnDiskIterableChainedHashTableIN12_GLOBAL__N_126IdentifierIndexReaderTraitEE12key_iteratorC2EPKhjPS2_(ptr noundef nonnull align 8 dereferenceable(24) %0, ptr noundef %6, i32 noundef %7, ptr noundef %8)
  ret void
}

; Function Attrs: mustprogress nounwind uwtable
define internal void @_ZN4llvm30OnDiskIterableChainedHashTableIN12_GLOBAL__N_126IdentifierIndexReaderTraitEE12key_iteratorC2Ev(ptr noundef nonnull align 8 dereferenceable(24) %0) unnamed_addr #0 align 2 {
  %2 = alloca ptr, align 8
  store ptr %0, ptr %2, align 8
  %3 = load ptr, ptr %2, align 8
  call void @_ZN4llvm30OnDiskIterableChainedHashTableIN12_GLOBAL__N_126IdentifierIndexReaderTraitEE13iterator_baseC2Ev(ptr noundef nonnull align 8 dereferenceable(16) %3)
  %4 = getelementptr inbounds nuw %"class.llvm::OnDiskIterableChainedHashTable<(anonymous namespace)::IdentifierIndexReaderTrait>::key_iterator", ptr %3, i32 0, i32 1
  store ptr null, ptr %4, align 8
  ret void
}

; Function Attrs: mustprogress nounwind uwtable
define linkonce_odr hidden void @_ZN5clang18IdentifierIteratorC2Ev(ptr noundef nonnull align 8 dereferenceable(8) %0) unnamed_addr #0 comdat align 2 {
  %2 = alloca ptr, align 8
  store ptr %0, ptr %2, align 8
  %3 = load ptr, ptr %2, align 8
  store ptr getelementptr inbounds inrange(-16, 24) ({ [5 x ptr] }, ptr @_ZTVN5clang18IdentifierIteratorE, i32 0, i32 0, i32 2), ptr %3, align 8
  ret void
}

; Function Attrs: mustprogress nounwind uwtable
define internal void @_ZN12_GLOBAL__N_129GlobalIndexIdentifierIteratorC2ERN4llvm30OnDiskIterableChainedHashTableINS_26IdentifierIndexReaderTraitEEE(ptr noundef nonnull align 8 dereferenceable(56) %0, ptr noundef nonnull align 8 dereferenceable(40) %1) unnamed_addr #0 align 2 {
  %3 = alloca ptr, align 8
  %4 = alloca ptr, align 8
  %5 = alloca %"class.llvm::OnDiskIterableChainedHashTable<(anonymous namespace)::IdentifierIndexReaderTrait>::key_iterator", align 8
  %6 = alloca %"class.llvm::OnDiskIterableChainedHashTable<(anonymous namespace)::IdentifierIndexReaderTrait>::key_iterator", align 8
  store ptr %0, ptr %3, align 8
  store ptr %1, ptr %4, align 8
  %7 = load ptr, ptr %3, align 8
  call void @_ZN5clang18IdentifierIteratorC2Ev(ptr noundef nonnull align 8 dereferenceable(8) %7) #17
  store ptr getelementptr inbounds inrange(-16, 24) ({ [5 x ptr] }, ptr @_ZTVN12_GLOBAL__N_129GlobalIndexIdentifierIteratorE, i32 0, i32 0, i32 2), ptr %7, align 8
  %8 = getelementptr inbounds nuw %"class.(anonymous namespace)::GlobalIndexIdentifierIterator", ptr %7, i32 0, i32 1
  call void @_ZN4llvm30OnDiskIterableChainedHashTableIN12_GLOBAL__N_126IdentifierIndexReaderTraitEE12key_iteratorC2Ev(ptr noundef nonnull align 8 dereferenceable(24) %8)
  %9 = getelementptr inbounds nuw %"class.(anonymous namespace)::GlobalIndexIdentifierIterator", ptr %7, i32 0, i32 2
  call void @_ZN4llvm30OnDiskIterableChainedHashTableIN12_GLOBAL__N_126IdentifierIndexReaderTraitEE12key_iteratorC2Ev(ptr noundef nonnull align 8 dereferenceable(24) %9)
  %10 = load ptr, ptr %4, align 8
  call void @_ZN4llvm30OnDiskIterableChainedHashTableIN12_GLOBAL__N_126IdentifierIndexReaderTraitEE9key_beginEv(ptr dead_on_unwind writable sret(%"class.llvm::OnDiskIterableChainedHashTable<(anonymous namespace)::IdentifierIndexReaderTrait>::key_iterator") align 8 %5, ptr noundef nonnull align 8 dereferenceable(40) %10)
  %11 = getelementptr inbounds nuw %"class.(anonymous namespace)::GlobalIndexIdentifierIterator", ptr %7, i32 0, i32 1
  call void @llvm.memcpy.p0.p0.i64(ptr align 8 %11, ptr align 8 %5, i64 24, i1 false)
  %12 = load ptr, ptr %4, align 8
  call void @_ZN4llvm30OnDiskIterableChainedHashTableIN12_GLOBAL__N_126IdentifierIndexReaderTraitEE7key_endEv(ptr dead_on_unwind writable sret(%"class.llvm::OnDiskIterableChainedHashTable<(anonymous namespace)::IdentifierIndexReaderTrait>::key_iterator") align 8 %6, ptr noundef nonnull align 8 dereferenceable(40) %12)
  %13 = getelementptr inbounds nuw %"class.(anonymous namespace)::GlobalIndexIdentifierIterator", ptr %7, i32 0, i32 2
  call void @llvm.memcpy.p0.p0.i64(ptr align 8 %13, ptr align 8 %6, i64 24, i1 false)
  ret void
}

; Function Attrs: mustprogress nounwind uwtable
define dso_local noundef ptr @_ZNK5clang17GlobalModuleIndex24createIdentifierIteratorEv(ptr noundef nonnull align 8 dereferenceable(1496) %0) #0 align 2 {
  %2 = alloca ptr, align 8
  %3 = alloca ptr, align 8
  store ptr %0, ptr %2, align 8
  %4 = load ptr, ptr %2, align 8
  %5 = getelementptr inbounds nuw %"class.clang::GlobalModuleIndex", ptr %4, i32 0, i32 1
  %6 = load ptr, ptr %5, align 8
  store ptr %6, ptr %3, align 8
  %7 = call noalias noundef nonnull ptr @_Znwm(i64 noundef 56) #19
  %8 = load ptr, ptr %3, align 8
  call void @_ZN12_GLOBAL__N_129GlobalIndexIdentifierIteratorC2ERN4llvm30OnDiskIterableChainedHashTableINS_26IdentifierIndexReaderTraitEEE(ptr noundef nonnull align 8 dereferenceable(56) %7, ptr noundef nonnull align 8 dereferenceable(40) %8)
  ret ptr %7
}