; Function Attrs: mustprogress nounwind uwtable
define dso_local noalias noundef nonnull ptr @_ZNK5clang17GlobalModuleIndex24createIdentifierIteratorEv(ptr nocapture noundef nonnull readonly align 8 dereferenceable(1496) %0) local_unnamed_addr #0 align 2 {
  %2 = getelementptr inbounds nuw i8, ptr %0, i64 8
  %3 = load ptr, ptr %2, align 8
  %4 = tail call noalias noundef nonnull dereferenceable(56) ptr @_Znwm(i64 noundef 56) #27
  store ptr getelementptr inbounds inrange(-16, 24) (i8, ptr @_ZTVN12_GLOBAL__N_129GlobalIndexIdentifierIteratorE, i64 16), ptr %4, align 8
  %5 = getelementptr inbounds nuw i8, ptr %4, i64 8
  %6 = getelementptr inbounds nuw i8, ptr %4, i64 32
  %7 = getelementptr inbounds nuw i8, ptr %3, i64 32
  %8 = load ptr, ptr %7, align 8, !noalias !250
  %9 = getelementptr inbounds i8, ptr %3, i64 4
  %.val.i.i = load i32, ptr %9, align 4, !noalias !250
  %10 = getelementptr inbounds i8, ptr %3, i64 24
  store ptr %8, ptr %5, align 8
  %.sroa.2.0..sroa_idx.i = getelementptr inbounds i8, ptr %4, i64 16
  store i32 0, ptr %.sroa.2.0..sroa_idx.i, align 8
  %.sroa.3.0..sroa_idx.i = getelementptr inbounds i8, ptr %4, i64 20
  store i32 %.val.i.i, ptr %.sroa.3.0..sroa_idx.i, align 4
  %.sroa.4.0..sroa_idx.i = getelementptr inbounds i8, ptr %4, i64 24
  store ptr %10, ptr %.sroa.4.0..sroa_idx.i, align 8
  tail call void @llvm.memset.p0.i64(ptr noundef nonnull align 8 dereferenceable(24) %6, i8 0, i64 24, i1 false)
  ret ptr %4
}